target datalayout = "e-m:e-p270:32:32-p271:32:32-p272:64:64-i64:64-i128:128-f80:128-n8:16:32:64-S128"
target triple = "x86_64-pc-linux-gnu"

%"class.(anonymous namespace)::ufixedpoint16" = type { i16 }

; Function Attrs: inlinehint mustprogress nounwind uwtable
define linkonce_odr noundef nonnull align 4 dereferenceable(4) ptr @_ZSt3minIjERKT_S2_S2_(ptr noundef nonnull align 4 dereferenceable(4) %0, ptr noundef nonnull align 4 dereferenceable(4) %1) #5 comdat {
  %3 = alloca ptr, align 8
  %4 = alloca ptr, align 8
  %5 = alloca ptr, align 8
  store ptr %0, ptr %4, align 8, !tbaa !22
  store ptr %1, ptr %5, align 8, !tbaa !22
  %6 = load ptr, ptr %5, align 8, !tbaa !22
  %7 = load i32, ptr %6, align 4, !tbaa !3
  %8 = load ptr, ptr %4, align 8, !tbaa !22
  %9 = load i32, ptr %8, align 4, !tbaa !3
  %10 = icmp ult i32 %7, %9
  br i1 %10, label %11, label %13

11:                                               ; preds = %2
  %12 = load ptr, ptr %5, align 8, !tbaa !22
  store ptr %12, ptr %3, align 8
  br label %15

13:                                               ; preds = %2
  %14 = load ptr, ptr %4, align 8, !tbaa !22
  store ptr %14, ptr %3, align 8
  br label %15

15:                                               ; preds = %13, %11
  %16 = load ptr, ptr %3, align 8
  ret ptr %16
}

; Function Attrs: mustprogress nounwind uwtable
define internal void @_ZN12_GLOBAL__N_113ufixedpoint16C2Et(ptr noundef nonnull align 2 dereferenceable(2) %0, i16 noundef zeroext %1) unnamed_addr #4 align 2 {
  %3 = alloca ptr, align 8
  %4 = alloca i16, align 2
  store ptr %0, ptr %3, align 8, !tbaa !67
  store i16 %1, ptr %4, align 2, !tbaa !42
  %5 = load ptr, ptr %3, align 8
  %6 = getelementptr inbounds nuw %"class.(anonymous namespace)::ufixedpoint16", ptr %5, i32 0, i32 0
  %7 = load i16, ptr %4, align 2, !tbaa !42
  store i16 %7, ptr %6, align 2, !tbaa !958
  ret void
}

; Function Attrs: inlinehint mustprogress uwtable
define internal noundef zeroext i16 @_ZN2cvL13saturate_castItEET_j(i32 noundef %0) #6 {
  %2 = alloca i32, align 4
  %3 = alloca i32, align 4
  store i32 %0, ptr %2, align 4, !tbaa !3
  call void @llvm.lifetime.start.p0(i64 4, ptr %3) #19
  store i32 65535, ptr %3, align 4, !tbaa !3
  %4 = call noundef nonnull align 4 dereferenceable(4) ptr @_ZSt3minIjERKT_S2_S2_(ptr noundef nonnull align 4 dereferenceable(4) %2, ptr noundef nonnull align 4 dereferenceable(4) %3)
  %5 = load i32, ptr %4, align 4, !tbaa !3
  %6 = trunc i32 %5 to i16
  call void @llvm.lifetime.end.p0(i64 4, ptr %3) #19
  ret i16 %6
}

; Function Attrs: alwaysinline mustprogress nounwind uwtable
define internal noundef nonnull align 2 dereferenceable(2) ptr @_ZN12_GLOBAL__N_113ufixedpoint16aSERKh(ptr noundef nonnull align 2 dereferenceable(2) %0, ptr noundef nonnull align 1 dereferenceable(1) %1) #16 align 2 {
  %3 = alloca ptr, align 8
  %4 = alloca ptr, align 8
  store ptr %0, ptr %3, align 8, !tbaa !67
  store ptr %1, ptr %4, align 8, !tbaa !7
  %5 = load ptr, ptr %3, align 8
  %6 = load ptr, ptr %4, align 8, !tbaa !7
  %7 = load i8, ptr %6, align 1, !tbaa !127
  %8 = zext i8 %7 to i16
  %9 = zext i16 %8 to i32
  %10 = shl i32 %9, 8
  %11 = trunc i32 %10 to i16
  %12 = getelementptr inbounds nuw %"class.(anonymous namespace)::ufixedpoint16", ptr %5, i32 0, i32 0
  store i16 %11, ptr %12, align 2, !tbaa !958
  ret ptr %5
}

; Function Attrs: alwaysinline mustprogress uwtable
define internal void @_ZNK12_GLOBAL__N_113ufixedpoint16plERKS0_(ptr dead_on_unwind noalias writable sret(%"class.(anonymous namespace)::ufixedpoint16") align 2 %0, ptr noundef nonnull align 2 dereferenceable(2) %1, ptr noundef nonnull align 2 dereferenceable(2) %2) #18 align 2 {
  %4 = alloca ptr, align 8
  %5 = alloca ptr, align 8
  %6 = alloca ptr, align 8
  %7 = alloca i16, align 2
  store ptr %0, ptr %4, align 8
  store ptr %1, ptr %5, align 8, !tbaa !67
  store ptr %2, ptr %6, align 8, !tbaa !67
  %8 = load ptr, ptr %5, align 8
  call void @llvm.lifetime.start.p0(i64 2, ptr %7) #19
  %9 = getelementptr inbounds nuw %"class.(anonymous namespace)::ufixedpoint16", ptr %8, i32 0, i32 0
  %10 = load i16, ptr %9, align 2, !tbaa !958
  %11 = zext i16 %10 to i32
  %12 = load ptr, ptr %6, align 8, !tbaa !67
  %13 = getelementptr inbounds nuw %"class.(anonymous namespace)::ufixedpoint16", ptr %12, i32 0, i32 0
  %14 = load i16, ptr %13, align 2, !tbaa !958
  %15 = zext i16 %14 to i32
  %16 = add nsw i32 %11, %15
  %17 = trunc i32 %16 to i16
  store i16 %17, ptr %7, align 2, !tbaa !42
  %18 = getelementptr inbounds nuw %"class.(anonymous namespace)::ufixedpoint16", ptr %8, i32 0, i32 0
  %19 = load i16, ptr %18, align 2, !tbaa !958
  %20 = zext i16 %19 to i32
  %21 = load i16, ptr %7, align 2, !tbaa !42
  %22 = zext i16 %21 to i32
  %23 = icmp sgt i32 %20, %22
  br i1 %23, label %24, label %25

24:                                               ; preds = %3
  br label %27

25:                                               ; preds = %3
  %26 = load i16, ptr %7, align 2, !tbaa !42
  br label %27

27:                                               ; preds = %25, %24
  %28 = phi i16 [ -1, %24 ], [ %26, %25 ]
  call void @_ZN12_GLOBAL__N_113ufixedpoint16C2Et(ptr noundef nonnull align 2 dereferenceable(2) %0, i16 noundef zeroext %28)
  call void @llvm.lifetime.end.p0(i64 2, ptr %7) #19
  ret void
}

; Function Attrs: alwaysinline mustprogress uwtable
define internal void @_ZNK12_GLOBAL__N_113ufixedpoint16mlERKh(ptr dead_on_unwind noalias writable sret(%"class.(anonymous namespace)::ufixedpoint16") align 2 %0, ptr noundef nonnull align 2 dereferenceable(2) %1, ptr noundef nonnull align 1 dereferenceable(1) %2) #18 align 2 {
  %4 = alloca ptr, align 8
  %5 = alloca ptr, align 8
  %6 = alloca ptr, align 8
  store ptr %0, ptr %4, align 8
  store ptr %1, ptr %5, align 8, !tbaa !67
  store ptr %2, ptr %6, align 8, !tbaa !7
  %7 = load ptr, ptr %5, align 8
  %8 = getelementptr inbounds nuw %"class.(anonymous namespace)::ufixedpoint16", ptr %7, i32 0, i32 0
  %9 = load i16, ptr %8, align 2, !tbaa !958
  %10 = zext i16 %9 to i32
  %11 = load ptr, ptr %6, align 8, !tbaa !7
  %12 = load i8, ptr %11, align 1, !tbaa !127
  %13 = zext i8 %12 to i32
  %14 = mul i32 %10, %13
  %15 = call noundef zeroext i16 @_ZN2cvL13saturate_castItEET_j(i32 noundef %14)
  call void @_ZN12_GLOBAL__N_113ufixedpoint16C2Et(ptr noundef nonnull align 2 dereferenceable(2) %0, i16 noundef zeroext %15)
  ret void
}

; Function Attrs: alwaysinline mustprogress nounwind uwtable
define internal noundef nonnull align 2 dereferenceable(2) ptr @_ZN12_GLOBAL__N_113ufixedpoint16aSERKS0_(ptr noundef nonnull align 2 dereferenceable(2) %0, ptr noundef nonnull align 2 dereferenceable(2) %1) #16 align 2 {
  %3 = alloca ptr, align 8
  %4 = alloca ptr, align 8
  store ptr %0, ptr %3, align 8, !tbaa !67
  store ptr %1, ptr %4, align 8, !tbaa !67
  %5 = load ptr, ptr %3, align 8
  %6 = load ptr, ptr %4, align 8, !tbaa !67
  %7 = getelementptr inbounds nuw %"class.(anonymous namespace)::ufixedpoint16", ptr %6, i32 0, i32 0
  %8 = load i16, ptr %7, align 2, !tbaa !958
  %9 = getelementptr inbounds nuw %"class.(anonymous namespace)::ufixedpoint16", ptr %5, i32 0, i32 0
  store i16 %8, ptr %9, align 2, !tbaa !958
  ret ptr %5
}

; Function Attrs: alwaysinline mustprogress nounwind uwtable
define internal void @_ZN12_GLOBAL__N_113ufixedpoint16C2ERKh(ptr noundef nonnull align 2 dereferenceable(2) %0, ptr noundef nonnull align 1 dereferenceable(1) %1) unnamed_addr #16 align 2 {
  %3 = alloca ptr, align 8
  %4 = alloca ptr, align 8
  store ptr %0, ptr %3, align 8, !tbaa !67
  store ptr %1, ptr %4, align 8, !tbaa !7
  %5 = load ptr, ptr %3, align 8
  %6 = load ptr, ptr %4, align 8, !tbaa !7
  %7 = load i8, ptr %6, align 1, !tbaa !127
  %8 = zext i8 %7 to i16
  %9 = zext i16 %8 to i32
  %10 = shl i32 %9, 8
  %11 = trunc i32 %10 to i16
  %12 = getelementptr inbounds nuw %"class.(anonymous namespace)::ufixedpoint16", ptr %5, i32 0, i32 0
  store i16 %11, ptr %12, align 2, !tbaa !958
  ret void
}

; Function Attrs: mustprogress uwtable
define internal void @_ZN12_GLOBAL__N_113hlineResizeCnIhNS_13ufixedpoint16ELi2ELb1ELi1EEEvPT_iPiPT0_S6_iii(ptr noundef %0, i32 noundef %1, ptr noundef %2, ptr noundef %3, ptr noundef %4, i32 noundef %5, i32 noundef %6, i32 noundef %7) #0 {
  %9 = alloca ptr, align 8
  %10 = alloca i32, align 4
  %11 = alloca ptr, align 8
  %12 = alloca ptr, align 8
  %13 = alloca ptr, align 8
  %14 = alloca i32, align 4
  %15 = alloca i32, align 4
  %16 = alloca i32, align 4
  %17 = alloca i32, align 4
  %18 = alloca %"class.(anonymous namespace)::ufixedpoint16", align 2
  %19 = alloca ptr, align 8
  %20 = alloca %"class.(anonymous namespace)::ufixedpoint16", align 2
  %21 = alloca %"class.(anonymous namespace)::ufixedpoint16", align 2
  %22 = alloca %"class.(anonymous namespace)::ufixedpoint16", align 2
  %23 = alloca i32, align 4
  store ptr %0, ptr %9, align 8, !tbaa !7
  store i32 %1, ptr %10, align 4, !tbaa !3
  store ptr %2, ptr %11, align 8, !tbaa !22
  store ptr %3, ptr %12, align 8, !tbaa !67
  store ptr %4, ptr %13, align 8, !tbaa !67
  store i32 %5, ptr %14, align 4, !tbaa !3
  store i32 %6, ptr %15, align 4, !tbaa !3
  store i32 %7, ptr %16, align 4, !tbaa !3
  call void @llvm.lifetime.start.p0(i64 4, ptr %17) #19
  store i32 0, ptr %17, align 4, !tbaa !3
  call void @llvm.lifetime.start.p0(i64 2, ptr %18) #19
  %24 = load ptr, ptr %9, align 8, !tbaa !7
  %25 = getelementptr inbounds i8, ptr %24, i64 0
  call void @_ZN12_GLOBAL__N_113ufixedpoint16C2ERKh(ptr noundef nonnull align 2 dereferenceable(2) %18, ptr noundef nonnull align 1 dereferenceable(1) %25)
  br label %26

26:                                               ; preds = %34, %8
  %27 = load i32, ptr %17, align 4, !tbaa !3
  %28 = load i32, ptr %14, align 4, !tbaa !3
  %29 = icmp slt i32 %27, %28
  br i1 %29, label %30, label %39

30:                                               ; preds = %26
  %31 = load ptr, ptr %13, align 8, !tbaa !67
  %32 = getelementptr inbounds nuw %"class.(anonymous namespace)::ufixedpoint16", ptr %31, i32 1
  store ptr %32, ptr %13, align 8, !tbaa !67
  %33 = call noundef nonnull align 2 dereferenceable(2) ptr @_ZN12_GLOBAL__N_113ufixedpoint16aSERKS0_(ptr noundef nonnull align 2 dereferenceable(2) %31, ptr noundef nonnull align 2 dereferenceable(2) %18)
  br label %34

34:                                               ; preds = %30
  %35 = load i32, ptr %17, align 4, !tbaa !3
  %36 = add nsw i32 %35, 1
  store i32 %36, ptr %17, align 4, !tbaa !3
  %37 = load ptr, ptr %12, align 8, !tbaa !67
  %38 = getelementptr inbounds %"class.(anonymous namespace)::ufixedpoint16", ptr %37, i64 2
  store ptr %38, ptr %12, align 8, !tbaa !67
  br label %26, !llvm.loop !904

39:                                               ; preds = %26
  br label %40

40:                                               ; preds = %64, %39
  %41 = load i32, ptr %17, align 4, !tbaa !3
  %42 = load i32, ptr %15, align 4, !tbaa !3
  %43 = icmp slt i32 %41, %42
  br i1 %43, label %44, label %69

44:                                               ; preds = %40
  call void @llvm.lifetime.start.p0(i64 8, ptr %19) #19
  %45 = load ptr, ptr %9, align 8, !tbaa !7
  %46 = load ptr, ptr %11, align 8, !tbaa !22
  %47 = load i32, ptr %17, align 4, !tbaa !3
  %48 = sext i32 %47 to i64
  %49 = getelementptr inbounds i32, ptr %46, i64 %48
  %50 = load i32, ptr %49, align 4, !tbaa !3
  %51 = sext i32 %50 to i64
  %52 = getelementptr inbounds i8, ptr %45, i64 %51
  store ptr %52, ptr %19, align 8, !tbaa !7
  call void @llvm.lifetime.start.p0(i64 2, ptr %20) #19
  call void @llvm.lifetime.start.p0(i64 2, ptr %21) #19
  %53 = load ptr, ptr %12, align 8, !tbaa !67
  %54 = getelementptr inbounds %"class.(anonymous namespace)::ufixedpoint16", ptr %53, i64 0
  %55 = load ptr, ptr %19, align 8, !tbaa !7
  %56 = getelementptr inbounds i8, ptr %55, i64 0
  call void @_ZNK12_GLOBAL__N_113ufixedpoint16mlERKh(ptr dead_on_unwind writable sret(%"class.(anonymous namespace)::ufixedpoint16") align 2 %21, ptr noundef nonnull align 2 dereferenceable(2) %54, ptr noundef nonnull align 1 dereferenceable(1) %56)
  call void @llvm.lifetime.start.p0(i64 2, ptr %22) #19
  %57 = load ptr, ptr %12, align 8, !tbaa !67
  %58 = getelementptr inbounds %"class.(anonymous namespace)::ufixedpoint16", ptr %57, i64 1
  %59 = load ptr, ptr %19, align 8, !tbaa !7
  %60 = getelementptr inbounds i8, ptr %59, i64 1
  call void @_ZNK12_GLOBAL__N_113ufixedpoint16mlERKh(ptr dead_on_unwind writable sret(%"class.(anonymous namespace)::ufixedpoint16") align 2 %22, ptr noundef nonnull align 2 dereferenceable(2) %58, ptr noundef nonnull align 1 dereferenceable(1) %60)
  call void @_ZNK12_GLOBAL__N_113ufixedpoint16plERKS0_(ptr dead_on_unwind writable sret(%"class.(anonymous namespace)::ufixedpoint16") align 2 %20, ptr noundef nonnull align 2 dereferenceable(2) %21, ptr noundef nonnull align 2 dereferenceable(2) %22)
  %61 = load ptr, ptr %13, align 8, !tbaa !67
  %62 = getelementptr inbounds nuw %"class.(anonymous namespace)::ufixedpoint16", ptr %61, i32 1
  store ptr %62, ptr %13, align 8, !tbaa !67
  %63 = call noundef nonnull align 2 dereferenceable(2) ptr @_ZN12_GLOBAL__N_113ufixedpoint16aSERKS0_(ptr noundef nonnull align 2 dereferenceable(2) %61, ptr noundef nonnull align 2 dereferenceable(2) %20)
  call void @llvm.lifetime.end.p0(i64 2, ptr %22) #19
  call void @llvm.lifetime.end.p0(i64 2, ptr %21) #19
  call void @llvm.lifetime.end.p0(i64 2, ptr %20) #19
  call void @llvm.lifetime.end.p0(i64 8, ptr %19) #19
  br label %64

64:                                               ; preds = %44
  %65 = load i32, ptr %17, align 4, !tbaa !3
  %66 = add nsw i32 %65, 1
  store i32 %66, ptr %17, align 4, !tbaa !3
  %67 = load ptr, ptr %12, align 8, !tbaa !67
  %68 = getelementptr inbounds %"class.(anonymous namespace)::ufixedpoint16", ptr %67, i64 2
  store ptr %68, ptr %12, align 8, !tbaa !67
  br label %40, !llvm.loop !905

69:                                               ; preds = %40
  %70 = load i32, ptr %17, align 4, !tbaa !3
  %71 = load i32, ptr %16, align 4, !tbaa !3
  %72 = icmp sge i32 %70, %71
  br i1 %72, label %73, label %74

73:                                               ; preds = %69
  store i32 1, ptr %23, align 4
  br label %98

74:                                               ; preds = %69
  %75 = load ptr, ptr %9, align 8, !tbaa !7
  %76 = load ptr, ptr %11, align 8, !tbaa !22
  %77 = load i32, ptr %16, align 4, !tbaa !3
  %78 = sub nsw i32 %77, 1
  %79 = sext i32 %78 to i64
  %80 = getelementptr inbounds i32, ptr %76, i64 %79
  %81 = load i32, ptr %80, align 4, !tbaa !3
  %82 = sext i32 %81 to i64
  %83 = getelementptr inbounds i8, ptr %75, i64 %82
  %84 = getelementptr inbounds i8, ptr %83, i64 0
  %85 = call noundef nonnull align 2 dereferenceable(2) ptr @_ZN12_GLOBAL__N_113ufixedpoint16aSERKh(ptr noundef nonnull align 2 dereferenceable(2) %18, ptr noundef nonnull align 1 dereferenceable(1) %84)
  br label %86

86:                                               ; preds = %94, %74
  %87 = load i32, ptr %17, align 4, !tbaa !3
  %88 = load i32, ptr %16, align 4, !tbaa !3
  %89 = icmp slt i32 %87, %88
  br i1 %89, label %90, label %97

90:                                               ; preds = %86
  %91 = load ptr, ptr %13, align 8, !tbaa !67
  %92 = getelementptr inbounds nuw %"class.(anonymous namespace)::ufixedpoint16", ptr %91, i32 1
  store ptr %92, ptr %13, align 8, !tbaa !67
  %93 = call noundef nonnull align 2 dereferenceable(2) ptr @_ZN12_GLOBAL__N_113ufixedpoint16aSERKS0_(ptr noundef nonnull align 2 dereferenceable(2) %91, ptr noundef nonnull align 2 dereferenceable(2) %18)
  br label %94

94:                                               ; preds = %90
  %95 = load i32, ptr %17, align 4, !tbaa !3
  %96 = add nsw i32 %95, 1
  store i32 %96, ptr %17, align 4, !tbaa !3
  br label %86, !llvm.loop !906

97:                                               ; preds = %86
  store i32 0, ptr %23, align 4
  br label %98

98:                                               ; preds = %97, %73
  call void @llvm.lifetime.end.p0(i64 2, ptr %18) #19
  call void @llvm.lifetime.end.p0(i64 4, ptr %17) #19
  %99 = load i32, ptr %23, align 4
  switch i32 %99, label %101 [
    i32 0, label %100
    i32 1, label %100
  ]

100:                                              ; preds = %98, %98
  ret void

101:                                              ; preds = %98
  unreachable
}